target datalayout = "e-m:e-p270:32:32-p271:32:32-p272:64:64-i64:64-i128:128-f80:128-n8:16:32:64-S128"
target triple = "x86_64-pc-linux-gnu"

; Function Attrs: inlinehint nounwind sspstrong uwtable
define internal i32 @RB_FIX2INT(i64 noundef %0) #3 {
  %2 = alloca i64, align 8
  %3 = alloca i64, align 8
  store i64 %0, ptr %2, align 8, !tbaa !6
  call void @llvm.lifetime.start.p0(i64 8, ptr %3) #23
  %4 = load i64, ptr %2, align 8, !tbaa !6
  %5 = call i64 @rb_fix2int(i64 noundef %4)
  store i64 %5, ptr %3, align 8, !tbaa !6
  %6 = load i64, ptr %3, align 8, !tbaa !6
  %7 = trunc i64 %6 to i32
  call void @llvm.lifetime.end.p0(i64 8, ptr %3) #23
  ret i32 %7
}

; Function Attrs: nounwind sspstrong uwtable
define internal i64 @d_lite_upto(i64 noundef %0, i64 noundef %1) #0 {
  %3 = alloca i64, align 8
  %4 = alloca i64, align 8
  %5 = alloca i64, align 8
  %6 = alloca i64, align 8
  %7 = alloca i32, align 4
  store i64 %0, ptr %4, align 8, !tbaa !6
  store i64 %1, ptr %5, align 8, !tbaa !6
  call void @llvm.lifetime.start.p0(i64 8, ptr %6) #23
  br label %8

8:                                                ; preds = %2
  %9 = call i32 @rb_block_given_p()
  %10 = icmp ne i32 %9, 0
  br i1 %10, label %16, label %11

11:                                               ; preds = %8
  %12 = load i64, ptr %4, align 8, !tbaa !6
  %13 = call i64 @rb_frame_this_func()
  %14 = call i64 @rb_id2sym(i64 noundef %13)
  %15 = call i64 @rb_enumeratorize_with_size(i64 noundef %12, i64 noundef %14, i32 noundef 1, ptr noundef %5, ptr noundef null)
  store i64 %15, ptr %3, align 8
  store i32 1, ptr %7, align 4
  br label %33

16:                                               ; preds = %8
  br label %17

17:                                               ; preds = %16
  br label %18

18:                                               ; preds = %17
  %19 = load i64, ptr %4, align 8, !tbaa !6
  store i64 %19, ptr %6, align 8, !tbaa !6
  br label %20

20:                                               ; preds = %26, %18
  %21 = load i64, ptr %6, align 8, !tbaa !6
  %22 = load i64, ptr %5, align 8, !tbaa !6
  %23 = call i64 @d_lite_cmp(i64 noundef %21, i64 noundef %22)
  %24 = call i32 @RB_FIX2INT(i64 noundef %23)
  %25 = icmp sle i32 %24, 0
  br i1 %25, label %26, label %31

26:                                               ; preds = %20
  %27 = load i64, ptr %6, align 8, !tbaa !6
  %28 = call i64 @rb_yield(i64 noundef %27)
  %29 = load i64, ptr %6, align 8, !tbaa !6
  %30 = call i64 @d_lite_plus(i64 noundef %29, i64 noundef 3)
  store i64 %30, ptr %6, align 8, !tbaa !6
  br label %20, !llvm.loop !44

31:                                               ; preds = %20
  %32 = load i64, ptr %4, align 8, !tbaa !6
  store i64 %32, ptr %3, align 8
  store i32 1, ptr %7, align 4
  br label %33

33:                                               ; preds = %31, %11
  call void @llvm.lifetime.end.p0(i64 8, ptr %6) #23
  %34 = load i64, ptr %3, align 8
  ret i64 %34
}