; Function Attrs: nounwind sspstrong uwtable
define internal i64 @d_lite_upto(i64 noundef %0, i64 noundef %1) #0 {
  %3 = alloca i64, align 8
  store i64 %1, ptr %3, align 8, !tbaa !6
  %4 = tail call i32 @rb_block_given_p() #21
  %.not = icmp eq i32 %4, 0
  br i1 %.not, label %9, label %.preheader

.preheader:                                       ; preds = %2
  %5 = tail call i64 @d_lite_cmp(i64 noundef %0, i64 noundef %1)
  %6 = tail call i64 @rb_fix2int(i64 noundef %5) #21
  %7 = trunc i64 %6 to i32
  %8 = icmp slt i32 %7, 1
  br i1 %8, label %.lr.ph, label %.loopexit

9:                                                ; preds = %2
  %10 = tail call i64 @rb_frame_this_func() #21
  %11 = tail call i64 @rb_id2sym(i64 noundef %10) #21
  %12 = call i64 @rb_enumeratorize_with_size(i64 noundef %0, i64 noundef %11, i32 noundef 1, ptr noundef nonnull %3, ptr noundef null) #21
  br label %.loopexit

.lr.ph:                                           ; preds = %.preheader, %.lr.ph
  %.08 = phi i64 [ %14, %.lr.ph ], [ %0, %.preheader ]
  %13 = tail call i64 @rb_yield(i64 noundef %.08) #21
  %14 = tail call i64 @d_lite_plus(i64 noundef %.08, i64 noundef 3)
  %15 = tail call i64 @d_lite_cmp(i64 noundef %14, i64 noundef %1)
  %16 = tail call i64 @rb_fix2int(i64 noundef %15) #21
  %17 = trunc i64 %16 to i32
  %18 = icmp slt i32 %17, 1
  br i1 %18, label %.lr.ph, label %.loopexit, !llvm.loop !55

.loopexit:                                        ; preds = %.lr.ph, %.preheader, %9
  %.07 = phi i64 [ %12, %9 ], [ %0, %.preheader ], [ %0, %.lr.ph ]
  ret i64 %.07
}